; Function Attrs: mustprogress uwtable
define void @_ZN8QuantLib8CapFloor10deepUpdateEv(ptr noundef nonnull align 8 dereferenceable(184) %this) unnamed_addr #8 align 2 {
entry:
  %floatingLeg_ = getelementptr inbounds nuw i8, ptr %this, i64 112
  %0 = load ptr, ptr %floatingLeg_, align 8, !tbaa !3
  %_M_finish.i = getelementptr inbounds nuw i8, ptr %this, i64 120
  %1 = load ptr, ptr %_M_finish.i, align 8, !tbaa !3
  %cmp.i.not4 = icmp eq ptr %0, %1
  br i1 %cmp.i.not4, label %for.cond.cleanup, label %for.body

for.cond.cleanup:                                 ; preds = %_ZNK5boost10shared_ptrIN8QuantLib8CashFlowEEptEv.exit, %entry
  %vtable9 = load ptr, ptr %this, align 8, !tbaa !33
  %vfn10 = getelementptr inbounds i8, ptr %vtable9, i64 16
  %2 = load ptr, ptr %vfn10, align 8
  tail call void %2(ptr noundef nonnull align 8 dereferenceable(12) %this)
  ret void

for.body:                                         ; preds = %entry, %_ZNK5boost10shared_ptrIN8QuantLib8CashFlowEEptEv.exit
  %__begin1.sroa.0.05 = phi ptr [ %incdec.ptr.i, %_ZNK5boost10shared_ptrIN8QuantLib8CashFlowEEptEv.exit ], [ %0, %entry ]
  %3 = load ptr, ptr %__begin1.sroa.0.05, align 8, !tbaa !74
  %cmp.not.i = icmp eq ptr %3, null
  br i1 %cmp.not.i, label %cond.false.i, label %_ZNK5boost10shared_ptrIN8QuantLib8CashFlowEEptEv.exit, !prof !94

cond.false.i:                                     ; preds = %for.body
  tail call void @_ZN5boost16assertion_failedEPKcS1_S1_l(ptr noundef nonnull @.str.32, ptr noundef nonnull @__PRETTY_FUNCTION__._ZNK5boost10shared_ptrIN8QuantLib8CashFlowEEptEv, ptr noundef nonnull @.str.33, i64 noundef 784)
  %.pre.i = load ptr, ptr %__begin1.sroa.0.05, align 8, !tbaa !74
  br label %_ZNK5boost10shared_ptrIN8QuantLib8CashFlowEEptEv.exit

_ZNK5boost10shared_ptrIN8QuantLib8CashFlowEEptEv.exit: ; preds = %for.body, %cond.false.i
  %4 = phi ptr [ %3, %for.body ], [ %.pre.i, %cond.false.i ]
  %vtable = load ptr, ptr %4, align 8, !tbaa !33
  %vbase.offset.ptr = getelementptr i8, ptr %vtable, i64 -32
  %vbase.offset = load i64, ptr %vbase.offset.ptr, align 8
  %add.ptr = getelementptr inbounds i8, ptr %4, i64 %vbase.offset
  %vtable7 = load ptr, ptr %add.ptr, align 8, !tbaa !33
  %vfn = getelementptr inbounds i8, ptr %vtable7, i64 24
  %5 = load ptr, ptr %vfn, align 8
  tail call void %5(ptr noundef nonnull align 8 dereferenceable(56) %add.ptr)
  %incdec.ptr.i = getelementptr inbounds nuw i8, ptr %__begin1.sroa.0.05, i64 16
  %cmp.i.not = icmp eq ptr %incdec.ptr.i, %1
  br i1 %cmp.i.not, label %for.cond.cleanup, label %for.body
}